target datalayout = "e-m:e-p270:32:32-p271:32:32-p272:64:64-i64:64-i128:128-f80:128-n8:16:32:64-S128"
target triple = "x86_64-pc-linux-gnu"

; Function Attrs: nounwind uwtable
define dso_local i32 @uv_os_setenv(ptr noundef %0, ptr noundef %1) #0 {
  %3 = alloca i32, align 4
  %4 = alloca ptr, align 8
  %5 = alloca ptr, align 8
  store ptr %0, ptr %4, align 8
  store ptr %1, ptr %5, align 8
  %6 = load ptr, ptr %4, align 8
  %7 = icmp eq ptr %6, null
  br i1 %7, label %11, label %8

8:                                                ; preds = %2
  %9 = load ptr, ptr %5, align 8
  %10 = icmp eq ptr %9, null
  br i1 %10, label %11, label %12

11:                                               ; preds = %8, %2
  store i32 -22, ptr %3, align 4
  br label %22

12:                                               ; preds = %8
  %13 = load ptr, ptr %4, align 8
  %14 = load ptr, ptr %5, align 8
  %15 = call i32 @setenv(ptr noundef %13, ptr noundef %14, i32 noundef 1) #11
  %16 = icmp ne i32 %15, 0
  br i1 %16, label %17, label %21

17:                                               ; preds = %12
  %18 = call ptr @__errno_location() #12
  %19 = load i32, ptr %18, align 4
  %20 = sub nsw i32 0, %19
  store i32 %20, ptr %3, align 4
  br label %22

21:                                               ; preds = %12
  store i32 0, ptr %3, align 4
  br label %22

22:                                               ; preds = %21, %17, %11
  %23 = load i32, ptr %3, align 4
  ret i32 %23
}