; Function Attrs: nounwind uwtable
define dso_local range(i32 -2147483647, -2147483648) i32 @uv_os_setenv(ptr noundef %0, ptr noundef %1) local_unnamed_addr #0 {
  %3 = icmp eq ptr %0, null
  %4 = icmp eq ptr %1, null
  %or.cond = or i1 %3, %4
  br i1 %or.cond, label %11, label %5

5:                                                ; preds = %2
  %6 = tail call i32 @setenv(ptr noundef nonnull %0, ptr noundef nonnull %1, i32 noundef 1) #23
  %.not = icmp eq i32 %6, 0
  br i1 %.not, label %11, label %7

7:                                                ; preds = %5
  %8 = tail call ptr @__errno_location() #24
  %9 = load i32, ptr %8, align 4
  %10 = sub nsw i32 0, %9
  br label %11

11:                                               ; preds = %5, %2, %7
  %.0 = phi i32 [ %10, %7 ], [ -22, %2 ], [ 0, %5 ]
  ret i32 %.0
}